; Function Attrs: mustprogress uwtable
define noundef zeroext i1 @_ZN5draco37SequentialAttributeEncodersController35TransformAttributesToPortableFormatEv(ptr noundef nonnull align 8 dereferenceable(168) %0) unnamed_addr #3 align 2 {
  %2 = getelementptr inbounds nuw i8, ptr %0, i64 72
  %3 = getelementptr inbounds nuw i8, ptr %0, i64 80
  %4 = load ptr, ptr %3, align 8, !tbaa !27
  %5 = load ptr, ptr %2, align 8, !tbaa !22
  %6 = icmp eq ptr %4, %5
  br i1 %6, label %._crit_edge, label %.lr.ph

.lr.ph:                                           ; preds = %1
  %7 = getelementptr inbounds nuw i8, ptr %0, i64 136
  br label %17

8:                                                ; preds = %17
  %9 = add i32 %.058, 1
  %10 = zext i32 %9 to i64
  %11 = load ptr, ptr %3, align 8, !tbaa !27
  %12 = load ptr, ptr %2, align 8, !tbaa !22
  %13 = ptrtoint ptr %11 to i64
  %14 = ptrtoint ptr %12 to i64
  %15 = sub i64 %13, %14
  %16 = ashr exact i64 %15, 3
  %.not = icmp ugt i64 %16, %10
  br i1 %.not, label %17, label %._crit_edge, !llvm.loop !50

17:                                               ; preds = %.lr.ph, %8
  %18 = phi ptr [ %5, %.lr.ph ], [ %12, %8 ]
  %19 = phi i64 [ 0, %.lr.ph ], [ %10, %8 ]
  %.058 = phi i32 [ 0, %.lr.ph ], [ %9, %8 ]
  %20 = getelementptr inbounds nuw %"class.std::unique_ptr.16", ptr %18, i64 %19
  %21 = load ptr, ptr %20, align 8, !tbaa !25
  %22 = load ptr, ptr %21, align 8, !tbaa !3
  %23 = getelementptr inbounds nuw i8, ptr %22, i64 32
  %24 = load ptr, ptr %23, align 8
  %25 = tail call noundef zeroext i1 %24(ptr noundef nonnull align 8 dereferenceable(72) %21, ptr noundef nonnull align 8 dereferenceable(24) %7)
  br i1 %25, label %8, label %._crit_edge

._crit_edge:                                      ; preds = %8, %17, %1
  %.lcssa = phi i1 [ true, %1 ], [ %25, %17 ], [ %25, %8 ]
  ret i1 %.lcssa
}